target datalayout = "e-m:e-p270:32:32-p271:32:32-p272:64:64-i64:64-i128:128-f80:128-n8:16:32:64-S128"
target triple = "x86_64-pc-linux-gnu"

%struct.ma_lcg = type { i32 }

@g_maLCG = internal global %struct.ma_lcg { i32 4321 }, align 4

; Function Attrs: alwaysinline nounwind uwtable
define internal i32 @ma_lcg_rand_s32(ptr noundef %0) #7 {
  %2 = alloca ptr, align 8
  store ptr %0, ptr %2, align 8, !tbaa !25
  %3 = load ptr, ptr %2, align 8, !tbaa !25
  %4 = getelementptr inbounds nuw %struct.ma_lcg, ptr %3, i32 0, i32 0
  %5 = load i32, ptr %4, align 4, !tbaa !67
  %6 = mul nsw i32 48271, %5
  %7 = add nsw i32 %6, 0
  %8 = srem i32 %7, 2147483647
  %9 = load ptr, ptr %2, align 8, !tbaa !25
  %10 = getelementptr inbounds nuw %struct.ma_lcg, ptr %9, i32 0, i32 0
  store i32 %8, ptr %10, align 4, !tbaa !67
  %11 = load ptr, ptr %2, align 8, !tbaa !25
  %12 = getelementptr inbounds nuw %struct.ma_lcg, ptr %11, i32 0, i32 0
  %13 = load i32, ptr %12, align 4, !tbaa !67
  ret i32 %13
}

; Function Attrs: alwaysinline nounwind uwtable
define internal double @ma_lcg_rand_f64(ptr noundef %0) #7 {
  %2 = alloca ptr, align 8
  store ptr %0, ptr %2, align 8, !tbaa !25
  %3 = load ptr, ptr %2, align 8, !tbaa !25
  %4 = call i32 @ma_lcg_rand_s32(ptr noundef %3)
  %5 = sitofp i32 %4 to double
  %6 = fdiv double %5, 0x41DFFFFFFFC00000
  ret double %6
}

; Function Attrs: alwaysinline nounwind uwtable
define internal float @ma_scale_to_range_f32(float noundef %0, float noundef %1, float noundef %2) #7 {
  %4 = alloca float, align 4
  %5 = alloca float, align 4
  %6 = alloca float, align 4
  store float %0, ptr %4, align 4, !tbaa !339
  store float %1, ptr %5, align 4, !tbaa !339
  store float %2, ptr %6, align 4, !tbaa !339
  %7 = load float, ptr %5, align 4, !tbaa !339
  %8 = load float, ptr %4, align 4, !tbaa !339
  %9 = load float, ptr %6, align 4, !tbaa !339
  %10 = load float, ptr %5, align 4, !tbaa !339
  %11 = fsub float %9, %10
  %12 = call float @llvm.fmuladd.f32(float %8, float %11, float %7)
  ret float %12
}

; Function Attrs: alwaysinline nounwind uwtable
define internal float @ma_lcg_rand_f32(ptr noundef %0) #7 {
  %2 = alloca ptr, align 8
  store ptr %0, ptr %2, align 8, !tbaa !25
  %3 = load ptr, ptr %2, align 8, !tbaa !25
  %4 = call double @ma_lcg_rand_f64(ptr noundef %3)
  %5 = fptrunc double %4 to float
  ret float %5
}

; Function Attrs: alwaysinline nounwind uwtable
define internal float @ma_lcg_rand_range_f32(ptr noundef %0, float noundef %1, float noundef %2) #7 {
  %4 = alloca ptr, align 8
  %5 = alloca float, align 4
  %6 = alloca float, align 4
  store ptr %0, ptr %4, align 8, !tbaa !25
  store float %1, ptr %5, align 4, !tbaa !339
  store float %2, ptr %6, align 4, !tbaa !339
  %7 = load ptr, ptr %4, align 8, !tbaa !25
  %8 = call float @ma_lcg_rand_f32(ptr noundef %7)
  %9 = load float, ptr %5, align 4, !tbaa !339
  %10 = load float, ptr %6, align 4, !tbaa !339
  %11 = call float @ma_scale_to_range_f32(float noundef %8, float noundef %9, float noundef %10)
  ret float %11
}

; Function Attrs: alwaysinline nounwind uwtable
define internal float @ma_rand_range_f32(float noundef %0, float noundef %1) #7 {
  %3 = alloca float, align 4
  %4 = alloca float, align 4
  store float %0, ptr %3, align 4, !tbaa !339
  store float %1, ptr %4, align 4, !tbaa !339
  %5 = load float, ptr %3, align 4, !tbaa !339
  %6 = load float, ptr %4, align 4, !tbaa !339
  %7 = call float @ma_lcg_rand_range_f32(ptr noundef @g_maLCG, float noundef %5, float noundef %6)
  ret float %7
}

; Function Attrs: alwaysinline nounwind uwtable
define internal float @ma_dither_f32_triangle(float noundef %0, float noundef %1) #7 {
  %3 = alloca float, align 4
  %4 = alloca float, align 4
  %5 = alloca float, align 4
  %6 = alloca float, align 4
  store float %0, ptr %3, align 4, !tbaa !339
  store float %1, ptr %4, align 4, !tbaa !339
  call void @llvm.lifetime.start.p0(i64 4, ptr %5) #16
  %7 = load float, ptr %3, align 4, !tbaa !339
  %8 = call float @ma_rand_range_f32(float noundef %7, float noundef 0.000000e+00)
  store float %8, ptr %5, align 4, !tbaa !339
  call void @llvm.lifetime.start.p0(i64 4, ptr %6) #16
  %9 = load float, ptr %4, align 4, !tbaa !339
  %10 = call float @ma_rand_range_f32(float noundef 0.000000e+00, float noundef %9)
  store float %10, ptr %6, align 4, !tbaa !339
  %11 = load float, ptr %5, align 4, !tbaa !339
  %12 = load float, ptr %6, align 4, !tbaa !339
  %13 = fadd float %11, %12
  call void @llvm.lifetime.end.p0(i64 4, ptr %6) #16
  call void @llvm.lifetime.end.p0(i64 4, ptr %5) #16
  ret float %13
}

; Function Attrs: alwaysinline nounwind uwtable
define internal float @ma_dither_f32_rectangle(float noundef %0, float noundef %1) #7 {
  %3 = alloca float, align 4
  %4 = alloca float, align 4
  store float %0, ptr %3, align 4, !tbaa !339
  store float %1, ptr %4, align 4, !tbaa !339
  %5 = load float, ptr %3, align 4, !tbaa !339
  %6 = load float, ptr %4, align 4, !tbaa !339
  %7 = call float @ma_rand_range_f32(float noundef %5, float noundef %6)
  ret float %7
}

; Function Attrs: alwaysinline nounwind uwtable
define internal float @ma_dither_f32(i32 noundef %0, float noundef %1, float noundef %2) #7 {
  %4 = alloca float, align 4
  %5 = alloca i32, align 4
  %6 = alloca float, align 4
  %7 = alloca float, align 4
  store i32 %0, ptr %5, align 4, !tbaa !8
  store float %1, ptr %6, align 4, !tbaa !339
  store float %2, ptr %7, align 4, !tbaa !339
  %8 = load i32, ptr %5, align 4, !tbaa !8
  %9 = icmp eq i32 %8, 1
  br i1 %9, label %10, label %14

10:                                               ; preds = %3
  %11 = load float, ptr %6, align 4, !tbaa !339
  %12 = load float, ptr %7, align 4, !tbaa !339
  %13 = call float @ma_dither_f32_rectangle(float noundef %11, float noundef %12)
  store float %13, ptr %4, align 4
  br label %22

14:                                               ; preds = %3
  %15 = load i32, ptr %5, align 4, !tbaa !8
  %16 = icmp eq i32 %15, 2
  br i1 %16, label %17, label %21

17:                                               ; preds = %14
  %18 = load float, ptr %6, align 4, !tbaa !339
  %19 = load float, ptr %7, align 4, !tbaa !339
  %20 = call float @ma_dither_f32_triangle(float noundef %18, float noundef %19)
  store float %20, ptr %4, align 4
  br label %22

21:                                               ; preds = %14
  store float 0.000000e+00, ptr %4, align 4
  br label %22

22:                                               ; preds = %21, %17, %10
  %23 = load float, ptr %4, align 4
  ret float %23
}

; Function Attrs: alwaysinline nounwind uwtable
define internal void @ma_pcm_f32_to_u8__reference(ptr noundef %0, ptr noundef %1, i64 noundef %2, i32 noundef %3) #7 {
  %5 = alloca ptr, align 8
  %6 = alloca ptr, align 8
  %7 = alloca i64, align 8
  %8 = alloca i32, align 4
  %9 = alloca i64, align 8
  %10 = alloca ptr, align 8
  %11 = alloca ptr, align 8
  %12 = alloca float, align 4
  %13 = alloca float, align 4
  %14 = alloca float, align 4
  store ptr %0, ptr %5, align 8, !tbaa !25
  store ptr %1, ptr %6, align 8, !tbaa !25
  store i64 %2, ptr %7, align 8, !tbaa !47
  store i32 %3, ptr %8, align 4, !tbaa !8
  call void @llvm.lifetime.start.p0(i64 8, ptr %9) #16
  call void @llvm.lifetime.start.p0(i64 8, ptr %10) #16
  %15 = load ptr, ptr %5, align 8, !tbaa !25
  store ptr %15, ptr %10, align 8, !tbaa !10
  call void @llvm.lifetime.start.p0(i64 8, ptr %11) #16
  %16 = load ptr, ptr %6, align 8, !tbaa !25
  store ptr %16, ptr %11, align 8, !tbaa !353
  call void @llvm.lifetime.start.p0(i64 4, ptr %12) #16
  store float 0.000000e+00, ptr %12, align 4, !tbaa !339
  call void @llvm.lifetime.start.p0(i64 4, ptr %13) #16
  store float 0.000000e+00, ptr %13, align 4, !tbaa !339
  %17 = load i32, ptr %8, align 4, !tbaa !8
  %18 = icmp ne i32 %17, 0
  br i1 %18, label %19, label %20

19:                                               ; preds = %4
  store float -7.812500e-03, ptr %12, align 4, !tbaa !339
  store float 0x3F80204080000000, ptr %13, align 4, !tbaa !339
  br label %20

20:                                               ; preds = %19, %4
  store i64 0, ptr %9, align 8, !tbaa !47
  br label %21

21:                                               ; preds = %58, %20
  %22 = load i64, ptr %9, align 8, !tbaa !47
  %23 = load i64, ptr %7, align 8, !tbaa !47
  %24 = icmp ult i64 %22, %23
  br i1 %24, label %25, label %61

25:                                               ; preds = %21
  call void @llvm.lifetime.start.p0(i64 4, ptr %14) #16
  %26 = load ptr, ptr %11, align 8, !tbaa !353
  %27 = load i64, ptr %9, align 8, !tbaa !47
  %28 = getelementptr inbounds nuw float, ptr %26, i64 %27
  %29 = load float, ptr %28, align 4, !tbaa !339
  store float %29, ptr %14, align 4, !tbaa !339
  %30 = load float, ptr %14, align 4, !tbaa !339
  %31 = load i32, ptr %8, align 4, !tbaa !8
  %32 = load float, ptr %12, align 4, !tbaa !339
  %33 = load float, ptr %13, align 4, !tbaa !339
  %34 = call float @ma_dither_f32(i32 noundef %31, float noundef %32, float noundef %33)
  %35 = fadd float %30, %34
  store float %35, ptr %14, align 4, !tbaa !339
  %36 = load float, ptr %14, align 4, !tbaa !339
  %37 = fcmp olt float %36, -1.000000e+00
  br i1 %37, label %38, label %39

38:                                               ; preds = %25
  br label %47

39:                                               ; preds = %25
  %40 = load float, ptr %14, align 4, !tbaa !339
  %41 = fcmp ogt float %40, 1.000000e+00
  br i1 %41, label %42, label %43

42:                                               ; preds = %39
  br label %45

43:                                               ; preds = %39
  %44 = load float, ptr %14, align 4, !tbaa !339
  br label %45

45:                                               ; preds = %43, %42
  %46 = phi float [ 1.000000e+00, %42 ], [ %44, %43 ]
  br label %47

47:                                               ; preds = %45, %38
  %48 = phi float [ -1.000000e+00, %38 ], [ %46, %45 ]
  store float %48, ptr %14, align 4, !tbaa !339
  %49 = load float, ptr %14, align 4, !tbaa !339
  %50 = fadd float %49, 1.000000e+00
  store float %50, ptr %14, align 4, !tbaa !339
  %51 = load float, ptr %14, align 4, !tbaa !339
  %52 = fmul float %51, 1.275000e+02
  store float %52, ptr %14, align 4, !tbaa !339
  %53 = load float, ptr %14, align 4, !tbaa !339
  %54 = fptoui float %53 to i8
  %55 = load ptr, ptr %10, align 8, !tbaa !10
  %56 = load i64, ptr %9, align 8, !tbaa !47
  %57 = getelementptr inbounds nuw i8, ptr %55, i64 %56
  store i8 %54, ptr %57, align 1, !tbaa !14
  call void @llvm.lifetime.end.p0(i64 4, ptr %14) #16
  br label %58

58:                                               ; preds = %47
  %59 = load i64, ptr %9, align 8, !tbaa !47
  %60 = add i64 %59, 1
  store i64 %60, ptr %9, align 8, !tbaa !47
  br label %21, !llvm.loop !1888

61:                                               ; preds = %21
  call void @llvm.lifetime.end.p0(i64 4, ptr %13) #16
  call void @llvm.lifetime.end.p0(i64 4, ptr %12) #16
  call void @llvm.lifetime.end.p0(i64 8, ptr %11) #16
  call void @llvm.lifetime.end.p0(i64 8, ptr %10) #16
  call void @llvm.lifetime.end.p0(i64 8, ptr %9) #16
  ret void
}

; Function Attrs: alwaysinline nounwind uwtable
define internal void @ma_pcm_f32_to_u8__optimized(ptr noundef %0, ptr noundef %1, i64 noundef %2, i32 noundef %3) #7 {
  %5 = alloca ptr, align 8
  %6 = alloca ptr, align 8
  %7 = alloca i64, align 8
  %8 = alloca i32, align 4
  store ptr %0, ptr %5, align 8, !tbaa !25
  store ptr %1, ptr %6, align 8, !tbaa !25
  store i64 %2, ptr %7, align 8, !tbaa !47
  store i32 %3, ptr %8, align 4, !tbaa !8
  %9 = load ptr, ptr %5, align 8, !tbaa !25
  %10 = load ptr, ptr %6, align 8, !tbaa !25
  %11 = load i64, ptr %7, align 8, !tbaa !47
  %12 = load i32, ptr %8, align 4, !tbaa !8
  call void @ma_pcm_f32_to_u8__reference(ptr noundef %9, ptr noundef %10, i64 noundef %11, i32 noundef %12)
  ret void
}

; Function Attrs: alwaysinline nounwind uwtable
define internal void @ma_pcm_f32_to_u8__sse2(ptr noundef %0, ptr noundef %1, i64 noundef %2, i32 noundef %3) #7 {
  %5 = alloca ptr, align 8
  %6 = alloca ptr, align 8
  %7 = alloca i64, align 8
  %8 = alloca i32, align 4
  store ptr %0, ptr %5, align 8, !tbaa !25
  store ptr %1, ptr %6, align 8, !tbaa !25
  store i64 %2, ptr %7, align 8, !tbaa !47
  store i32 %3, ptr %8, align 4, !tbaa !8
  %9 = load ptr, ptr %5, align 8, !tbaa !25
  %10 = load ptr, ptr %6, align 8, !tbaa !25
  %11 = load i64, ptr %7, align 8, !tbaa !47
  %12 = load i32, ptr %8, align 4, !tbaa !8
  call void @ma_pcm_f32_to_u8__optimized(ptr noundef %9, ptr noundef %10, i64 noundef %11, i32 noundef %12)
  ret void
}

; Function Attrs: alwaysinline nounwind uwtable
define internal i32 @ma_has_sse2() #7 {
  ret i32 1
}

; Function Attrs: nounwind uwtable
define void @ma_pcm_f32_to_u8(ptr noundef %0, ptr noundef %1, i64 noundef %2, i32 noundef %3) #0 {
  %5 = alloca ptr, align 8
  %6 = alloca ptr, align 8
  %7 = alloca i64, align 8
  %8 = alloca i32, align 4
  store ptr %0, ptr %5, align 8, !tbaa !25
  store ptr %1, ptr %6, align 8, !tbaa !25
  store i64 %2, ptr %7, align 8, !tbaa !47
  store i32 %3, ptr %8, align 4, !tbaa !8
  %9 = call i32 @ma_has_sse2()
  %10 = icmp ne i32 %9, 0
  br i1 %10, label %11, label %16

11:                                               ; preds = %4
  %12 = load ptr, ptr %5, align 8, !tbaa !25
  %13 = load ptr, ptr %6, align 8, !tbaa !25
  %14 = load i64, ptr %7, align 8, !tbaa !47
  %15 = load i32, ptr %8, align 4, !tbaa !8
  call void @ma_pcm_f32_to_u8__sse2(ptr noundef %12, ptr noundef %13, i64 noundef %14, i32 noundef %15)
  br label %21

16:                                               ; preds = %4
  %17 = load ptr, ptr %5, align 8, !tbaa !25
  %18 = load ptr, ptr %6, align 8, !tbaa !25
  %19 = load i64, ptr %7, align 8, !tbaa !47
  %20 = load i32, ptr %8, align 4, !tbaa !8
  call void @ma_pcm_f32_to_u8__optimized(ptr noundef %17, ptr noundef %18, i64 noundef %19, i32 noundef %20)
  br label %21

21:                                               ; preds = %16, %11
  ret void
}