; Function Attrs: nofree norecurse nosync nounwind memory(readwrite, inaccessiblemem: none) uwtable
define void @ma_pcm_f32_to_u8(ptr noundef writeonly captures(none) %0, ptr noundef readonly captures(none) %1, i64 noundef %2, i32 noundef %3) local_unnamed_addr #31 {
  %.not = icmp eq i64 %2, 0
  br i1 %.not, label %ma_pcm_f32_to_u8__reference.exit, label %.lr.ph

.lr.ph:                                           ; preds = %4
  %g_maLCG.promoted = load i32, ptr @g_maLCG.0, align 4
  switch i32 %3, label %ma_dither_f32.exit [
    i32 1, label %ma_dither_f32.exit.us
    i32 2, label %ma_dither_f32.exit.us11
  ]

ma_dither_f32.exit.us:                            ; preds = %.lr.ph, %22
  %.020.i8.us = phi i64 [ %25, %22 ], [ 0, %.lr.ph ]
  %5 = phi i32 [ %9, %22 ], [ %g_maLCG.promoted, %.lr.ph ]
  %6 = getelementptr inbounds nuw float, ptr %1, i64 %.020.i8.us
  %7 = load float, ptr %6, align 4, !tbaa !339
  %8 = mul nsw i32 %5, 48271
  %9 = srem i32 %8, 2147483647
  %10 = sitofp i32 %9 to double
  %11 = fdiv double %10, 0x41DFFFFFFFC00000
  %12 = fptrunc double %11 to float
  %13 = tail call float @llvm.fmuladd.f32(float %12, float 0x3F90102040000000, float -7.812500e-03)
  %14 = fadd float %7, %13
  %15 = fcmp olt float %14, -1.000000e+00
  br i1 %15, label %22, label %16

16:                                               ; preds = %ma_dither_f32.exit.us
  %17 = fcmp ogt float %14, 1.000000e+00
  %18 = select i1 %17, float 1.000000e+00, float %14
  %19 = fadd float %18, 1.000000e+00
  %20 = fmul float %19, 1.275000e+02
  %21 = fptoui float %20 to i8
  br label %22

22:                                               ; preds = %16, %ma_dither_f32.exit.us
  %23 = phi i8 [ %21, %16 ], [ 0, %ma_dither_f32.exit.us ]
  %24 = getelementptr inbounds nuw i8, ptr %0, i64 %.020.i8.us
  store i8 %23, ptr %24, align 1, !tbaa !7
  %25 = add nuw i64 %.020.i8.us, 1
  %exitcond15.not = icmp eq i64 %25, %2
  br i1 %exitcond15.not, label %ma_pcm_f32_to_u8__reference.exit.sink.split, label %ma_dither_f32.exit.us, !llvm.loop !415

ma_dither_f32.exit.us11:                          ; preds = %.lr.ph, %50
  %.020.i8.us10 = phi i64 [ %53, %50 ], [ 0, %.lr.ph ]
  %26 = phi i32 [ %36, %50 ], [ %g_maLCG.promoted, %.lr.ph ]
  %27 = getelementptr inbounds nuw float, ptr %1, i64 %.020.i8.us10
  %28 = load float, ptr %27, align 4, !tbaa !339
  %29 = mul nsw i32 %26, 48271
  %30 = srem i32 %29, 2147483647
  %31 = sitofp i32 %30 to double
  %32 = fdiv double %31, 0x41DFFFFFFFC00000
  %33 = fptrunc double %32 to float
  %34 = tail call float @llvm.fmuladd.f32(float %33, float 7.812500e-03, float -7.812500e-03)
  %35 = mul nsw i32 %30, 48271
  %36 = srem i32 %35, 2147483647
  %37 = sitofp i32 %36 to double
  %38 = fdiv double %37, 0x41DFFFFFFFC00000
  %39 = fptrunc double %38 to float
  %40 = tail call float @llvm.fmuladd.f32(float %39, float 0x3F80204080000000, float 0.000000e+00)
  %41 = fadd float %34, %40
  %42 = fadd float %28, %41
  %43 = fcmp olt float %42, -1.000000e+00
  br i1 %43, label %50, label %44

44:                                               ; preds = %ma_dither_f32.exit.us11
  %45 = fcmp ogt float %42, 1.000000e+00
  %46 = select i1 %45, float 1.000000e+00, float %42
  %47 = fadd float %46, 1.000000e+00
  %48 = fmul float %47, 1.275000e+02
  %49 = fptoui float %48 to i8
  br label %50

50:                                               ; preds = %44, %ma_dither_f32.exit.us11
  %51 = phi i8 [ %49, %44 ], [ 0, %ma_dither_f32.exit.us11 ]
  %52 = getelementptr inbounds nuw i8, ptr %0, i64 %.020.i8.us10
  store i8 %51, ptr %52, align 1, !tbaa !7
  %53 = add nuw i64 %.020.i8.us10, 1
  %exitcond.not = icmp eq i64 %53, %2
  br i1 %exitcond.not, label %ma_pcm_f32_to_u8__reference.exit.sink.split, label %ma_dither_f32.exit.us11, !llvm.loop !415

ma_dither_f32.exit:                               ; preds = %.lr.ph, %64
  %.020.i8 = phi i64 [ %67, %64 ], [ 0, %.lr.ph ]
  %54 = getelementptr inbounds nuw float, ptr %1, i64 %.020.i8
  %55 = load float, ptr %54, align 4, !tbaa !339
  %56 = fcmp olt float %55, -1.000000e+00
  br i1 %56, label %64, label %57

57:                                               ; preds = %ma_dither_f32.exit
  %58 = fadd float %55, 0.000000e+00
  %59 = fcmp ogt float %58, 1.000000e+00
  %60 = select i1 %59, float 1.000000e+00, float %58
  %61 = fadd float %60, 1.000000e+00
  %62 = fmul float %61, 1.275000e+02
  %63 = fptoui float %62 to i8
  br label %64

64:                                               ; preds = %57, %ma_dither_f32.exit
  %65 = phi i8 [ %63, %57 ], [ 0, %ma_dither_f32.exit ]
  %66 = getelementptr inbounds nuw i8, ptr %0, i64 %.020.i8
  store i8 %65, ptr %66, align 1, !tbaa !7
  %67 = add nuw i64 %.020.i8, 1
  %exitcond16.not = icmp eq i64 %67, %2
  br i1 %exitcond16.not, label %ma_pcm_f32_to_u8__reference.exit, label %ma_dither_f32.exit, !llvm.loop !415

ma_pcm_f32_to_u8__reference.exit.sink.split:      ; preds = %50, %22
  %.lcssa.sink = phi i32 [ %9, %22 ], [ %36, %50 ]
  store i32 %.lcssa.sink, ptr @g_maLCG.0, align 4, !tbaa !54
  br label %ma_pcm_f32_to_u8__reference.exit

ma_pcm_f32_to_u8__reference.exit:                 ; preds = %64, %ma_pcm_f32_to_u8__reference.exit.sink.split, %4
  ret void
}